; Function Attrs: mustprogress nounwind uwtable
define internal fastcc noundef ptr @_ZN5clang15StmtVisitorBaseIN4llvm14make_const_ptrEN12_GLOBAL__N_113DeclRefFinderEPKNS_11DeclRefExprEJEE27VisitCompoundAssignOperatorEPKNS_22CompoundAssignOperatorE(ptr noundef nonnull align 1 dereferenceable(1) %0, ptr nocapture noundef readonly %1) unnamed_addr #0 align 2 {
  %3 = load i8, ptr %0, align 1
  %4 = trunc i8 %3 to i1
  br i1 %4, label %5, label %_ZN12_GLOBAL__N_113DeclRefFinder19VisitBinaryOperatorEPKN5clang14BinaryOperatorE.exit

5:                                                ; preds = %2
  %6 = load i32, ptr %1, align 8
  %7 = and i32 %6, 16252928
  %switch.i = icmp eq i32 %7, 3670016
  br i1 %switch.i, label %8, label %_ZN12_GLOBAL__N_113DeclRefFinder19VisitBinaryOperatorEPKN5clang14BinaryOperatorE.exit

8:                                                ; preds = %5
  %9 = getelementptr inbounds nuw i8, ptr %1, i64 16
  %10 = load ptr, ptr %9, align 8
  %11 = tail call fastcc noundef ptr @_ZN5clang15StmtVisitorBaseIN4llvm14make_const_ptrEN12_GLOBAL__N_113DeclRefFinderEPKNS_11DeclRefExprEJEE5VisitEPKNS_4StmtE(ptr noundef nonnull align 1 dereferenceable(1) %0, ptr noundef %10)
  %.not.i = icmp eq ptr %11, null
  br i1 %.not.i, label %12, label %_ZN12_GLOBAL__N_113DeclRefFinder19VisitBinaryOperatorEPKN5clang14BinaryOperatorE.exit

12:                                               ; preds = %8
  %13 = getelementptr inbounds i8, ptr %1, i64 24
  %14 = load ptr, ptr %13, align 8
  %15 = tail call fastcc noundef ptr @_ZN5clang15StmtVisitorBaseIN4llvm14make_const_ptrEN12_GLOBAL__N_113DeclRefFinderEPKNS_11DeclRefExprEJEE5VisitEPKNS_4StmtE(ptr noundef nonnull align 1 dereferenceable(1) %0, ptr noundef %14)
  br label %_ZN12_GLOBAL__N_113DeclRefFinder19VisitBinaryOperatorEPKN5clang14BinaryOperatorE.exit

_ZN12_GLOBAL__N_113DeclRefFinder19VisitBinaryOperatorEPKN5clang14BinaryOperatorE.exit: ; preds = %2, %5, %8, %12
  %.0.i = phi ptr [ null, %2 ], [ %15, %12 ], [ %11, %8 ], [ null, %5 ]
  ret ptr %.0.i
}